	.section	__TEXT,__text,regular,pure_instructions
	.build_version macos, 12, 0	sdk_version 13, 1
	.globl	_main                           ## -- Begin function main
	.p2align	4, 0x90
_main:                                  ## @main
Lfunc_begin0:
	.file	1 "/Users/megami-sama/Documents/CS-entertaining-plays-tracker/ current-tracker/1-cs5008/hw/homework01-jindacz" "main.c"
	.loc	1 5 0                           ## main.c:5:0
	.cfi_startproc
## %bb.0:
	pushq	%rbp
	.cfi_def_cfa_offset 16
	.cfi_offset %rbp, -16
	movq	%rsp, %rbp
	.cfi_def_cfa_register %rbp
	pushq	%r15
	pushq	%r14
	pushq	%r13
	pushq	%r12
	pushq	%rbx
	pushq	%rax
	.cfi_offset %rbx, -56
	.cfi_offset %r12, -48
	.cfi_offset %r13, -40
	.cfi_offset %r14, -32
	.cfi_offset %r15, -24
	xorl	%ebx, %ebx
Ltmp0:
	.loc	1 6 11 prologue_end             ## main.c:6:11
	xorl	%edi, %edi
	callq	_time
Ltmp1:
	.loc	1 6 5 is_stmt 0                 ## main.c:6:5
	movl	%eax, %edi
	callq	_srand
Ltmp2:
	##DEBUG_VALUE: guess <- 0
	##DEBUG_VALUE: main:i <- undef
	##DEBUG_VALUE: main:__vla_expr0 <- 1
	##DEBUG_VALUE: main:numOfRounds <- 1
	.loc	1 13 13 is_stmt 1               ## main.c:13:13
	movl	$0, -44(%rbp)
Ltmp3:
	##DEBUG_VALUE: count <- 0
	.loc	1 16 9                          ## main.c:16:9
	leaq	L_str.14(%rip), %r14
	movq	%r14, %rdi
	callq	_puts
Ltmp4:
	.loc	1 17 9                          ## main.c:17:9
	leaq	L_str.13(%rip), %rdi
	callq	_puts
Ltmp5:
	.loc	1 18 9                          ## main.c:18:9
	movq	%r14, %rdi
	callq	_puts
Ltmp6:
	.loc	1 20 22                         ## main.c:20:22
	callq	_rand
Ltmp7:
	.loc	1 20 29 is_stmt 0               ## main.c:20:29
	movslq	%eax, %r13
	imulq	$1717986919, %r13, %rax         ## imm = 0x66666667
	movq	%rax, %rcx
	shrq	$63, %rcx
	sarq	$34, %rax
	addl	%ecx, %eax
	addl	%eax, %eax
	leal	(%rax,%rax,4), %eax
	subl	%eax, %r13d
	.loc	1 20 34                         ## main.c:20:34
	movl	%r13d, %r14d
	incl	%r14d
Ltmp8:
	##DEBUG_VALUE: target <- $r14d
	.loc	1 22 9 is_stmt 1                ## main.c:22:9
	jne	LBB0_1
Ltmp9:
LBB0_6:
	##DEBUG_VALUE: target <- $r14d
	##DEBUG_VALUE: main:numOfRounds <- 1
	##DEBUG_VALUE: main:__vla_expr0 <- 1
	.loc	1 32 9                          ## main.c:32:9
	leaq	L_str.15(%rip), %rdi
	callq	_puts
Ltmp10:
	##DEBUG_VALUE: main:i <- undef
	.loc	1 36 5                          ## main.c:36:5
	leaq	L_str.11(%rip), %r14
Ltmp11:
	movq	%r14, %rdi
	callq	_puts
Ltmp12:
	.loc	1 37 5                          ## main.c:37:5
	leaq	L_str.10(%rip), %rdi
	callq	_puts
Ltmp13:
	.loc	1 38 5                          ## main.c:38:5
	movq	%r14, %rdi
	callq	_puts
Ltmp14:
	.loc	1 41 9                          ## main.c:41:9
	leaq	L_.str.9(%rip), %rdi
	xorl	%esi, %esi
	movl	%ebx, %edx
	xorl	%eax, %eax
	callq	_printf
Ltmp15:
	.loc	1 44 1                          ## main.c:44:1
	xorl	%eax, %eax
	addq	$8, %rsp
	popq	%rbx
	popq	%r12
	popq	%r13
	popq	%r14
	popq	%r15
	popq	%rbp
	retq
Ltmp16:
LBB0_1:
	##DEBUG_VALUE: target <- $r14d
	##DEBUG_VALUE: count <- 0
	##DEBUG_VALUE: main:numOfRounds <- 1
	##DEBUG_VALUE: main:__vla_expr0 <- 1
	##DEBUG_VALUE: guess <- 0
	.loc	1 0 1 is_stmt 0                 ## main.c:0:1
	leaq	-44(%rbp), %r12
	leaq	L_str.17(%rip), %r15
	xorl	%ebx, %ebx
	jmp	LBB0_2
Ltmp17:
	.p2align	4, 0x90
LBB0_4:                                 ##   in Loop: Header=BB0_2 Depth=1
	##DEBUG_VALUE: guess <- $eax
	##DEBUG_VALUE: count <- $ebx
	##DEBUG_VALUE: target <- $r14d
	##DEBUG_VALUE: main:numOfRounds <- 1
	##DEBUG_VALUE: main:__vla_expr0 <- 1
	callq	_puts
Ltmp18:
LBB0_5:                                 ##   in Loop: Header=BB0_2 Depth=1
	##DEBUG_VALUE: count <- $ebx
	##DEBUG_VALUE: target <- $r14d
	##DEBUG_VALUE: main:numOfRounds <- 1
	##DEBUG_VALUE: main:__vla_expr0 <- 1
	##DEBUG_VALUE: guess <- undef
	.loc	1 25 19 is_stmt 1               ## main.c:25:19
	addl	$1, %ebx
Ltmp19:
	##DEBUG_VALUE: count <- $ebx
	.loc	1 22 22                         ## main.c:22:22
	cmpl	%r14d, -44(%rbp)
	.loc	1 22 9 is_stmt 0                ## main.c:22:9
	je	LBB0_6
Ltmp20:
LBB0_2:                                 ## =>This Inner Loop Header: Depth=1
	##DEBUG_VALUE: target <- $r14d
	##DEBUG_VALUE: main:numOfRounds <- 1
	##DEBUG_VALUE: main:__vla_expr0 <- 1
	##DEBUG_VALUE: count <- $ebx
	.loc	1 23 13 is_stmt 1               ## main.c:23:13
	leaq	L_.str.2(%rip), %rdi
	xorl	%eax, %eax
	callq	_printf
Ltmp21:
	##DEBUG_VALUE: guess <- [DW_OP_constu 44, DW_OP_minus, DW_OP_deref] $rbp
	.loc	1 24 13                         ## main.c:24:13
	leaq	L_.str.3(%rip), %rdi
	movq	%r12, %rsi
	xorl	%eax, %eax
	callq	_scanf
Ltmp22:
	.loc	1 26 18                         ## main.c:26:18
	movl	-44(%rbp), %eax
Ltmp23:
	##DEBUG_VALUE: guess <- $eax
	.loc	1 0 18 is_stmt 0                ## main.c:0:18
	movq	%r15, %rdi
	.loc	1 26 24                         ## main.c:26:24
	cmpl	%r13d, %eax
Ltmp24:
	.loc	1 26 18                         ## main.c:26:18
	jle	LBB0_4
Ltmp25:
## %bb.3:                               ##   in Loop: Header=BB0_2 Depth=1
	##DEBUG_VALUE: guess <- $eax
	##DEBUG_VALUE: count <- $ebx
	##DEBUG_VALUE: target <- $r14d
	##DEBUG_VALUE: main:numOfRounds <- 1
	##DEBUG_VALUE: main:__vla_expr0 <- 1
	.loc	1 0 18                          ## main.c:0:18
	leaq	L_str.16(%rip), %rdi
Ltmp26:
	.loc	1 28 31 is_stmt 1               ## main.c:28:31
	cmpl	%r14d, %eax
Ltmp27:
	.loc	1 28 25 is_stmt 0               ## main.c:28:25
	jg	LBB0_4
	jmp	LBB0_5
Ltmp28:
Lfunc_end0:
	.cfi_endproc
	.file	2 "/Applications/Xcode.app/Contents/Developer/Platforms/MacOSX.platform/Developer/SDKs/MacOSX.sdk/usr/include" "time.h"
	.file	3 "/Applications/Xcode.app/Contents/Developer/Platforms/MacOSX.platform/Developer/SDKs/MacOSX.sdk/usr/include/i386" "_types.h"
	.file	4 "/Applications/Xcode.app/Contents/Developer/Platforms/MacOSX.platform/Developer/SDKs/MacOSX.sdk/usr/include/sys/_types" "_time_t.h"
	.file	5 "/Applications/Xcode.app/Contents/Developer/Platforms/MacOSX.platform/Developer/SDKs/MacOSX.sdk/usr/include" "stdlib.h"
                                        ## -- End function
	.section	__TEXT,__cstring,cstring_literals
L_.str.2:                               ## @.str.2
	.asciz	"Make a guess:"

L_.str.3:                               ## @.str.3
	.asciz	"%d"

L_.str.9:                               ## @.str.9
	.asciz	"Game %d took you %d guesses\n"

L_str.10:                               ## @str.10
	.asciz	"|Here are the results of your guessing abilities|"

L_str.11:                               ## @str.11
	.asciz	"================================================="

L_str.13:                               ## @str.13
	.asciz	"CPU Says: Pick a number 1-10"

L_str.14:                               ## @str.14
	.asciz	"=========================="

L_str.15:                               ## @str.15
	.asciz	"You got it!"

L_str.16:                               ## @str.16
	.asciz	"No guess lower!"

L_str.17:                               ## @str.17
	.asciz	"No guess higher!"
